; Function Attrs: mustprogress nounwind uwtable
define hidden noundef ptr @_ZN28TemplateInterpreterGenerator22generate_currentThreadEv(ptr nocapture noundef nonnull readonly align 8 dereferenceable(24) %0) local_unnamed_addr #0 align 2 {
  %2 = alloca %class.Address, align 16
  %3 = load ptr, ptr %0, align 8
  %4 = load i8, ptr @PrintInterpreter, align 1
  %5 = trunc i8 %4 to i1
  br i1 %5, label %6, label %_ZN12Disassembler4hookI25InterpreterMacroAssemblerEEPT_PKciS3_.exit

6:                                                ; preds = %1
  tail call void @_ZN12Disassembler5_hookEPKciP14MacroAssembler(ptr noundef nonnull @.str, i32 noundef 485, ptr noundef %3) #6
  %.pre = load ptr, ptr %0, align 8
  %.pre14 = load i8, ptr @PrintInterpreter, align 1
  br label %_ZN12Disassembler4hookI25InterpreterMacroAssemblerEEPT_PKciS3_.exit

_ZN12Disassembler4hookI25InterpreterMacroAssemblerEEPT_PKciS3_.exit: ; preds = %1, %6
  %7 = phi i8 [ %4, %1 ], [ %.pre14, %6 ]
  %8 = phi ptr [ %3, %1 ], [ %.pre, %6 ]
  %9 = getelementptr inbounds i8, ptr %3, i64 8
  %10 = load ptr, ptr %9, align 8
  %11 = getelementptr inbounds i8, ptr %10, i64 16
  %12 = load ptr, ptr %11, align 8
  %13 = trunc i8 %7 to i1
  br i1 %13, label %14, label %_ZN12Disassembler4hookI25InterpreterMacroAssemblerEEPT_PKciS3_.exit9

14:                                               ; preds = %_ZN12Disassembler4hookI25InterpreterMacroAssemblerEEPT_PKciS3_.exit
  tail call void @_ZN12Disassembler5_hookEPKciP14MacroAssembler(ptr noundef nonnull @.str, i32 noundef 487, ptr noundef %8) #6
  br label %_ZN12Disassembler4hookI25InterpreterMacroAssemblerEEPT_PKciS3_.exit9

_ZN12Disassembler4hookI25InterpreterMacroAssemblerEEPT_PKciS3_.exit9: ; preds = %_ZN12Disassembler4hookI25InterpreterMacroAssemblerEEPT_PKciS3_.exit, %14
  store <4 x i32> <i32 15, i32 -1, i32 -1, i32 -1>, ptr %2, align 16
  %15 = getelementptr inbounds i8, ptr %2, i64 16
  store i32 904, ptr %15, align 16
  %16 = getelementptr inbounds i8, ptr %2, i64 20
  store i8 0, ptr %16, align 4
  %17 = getelementptr inbounds i8, ptr %2, i64 24
  store ptr getelementptr inbounds inrange(-16, 72) (i8, ptr @_ZTV10Relocation, i64 16), ptr %17, align 8
  %18 = getelementptr inbounds i8, ptr %2, i64 32
  store ptr null, ptr %18, align 16
  %19 = getelementptr inbounds i8, ptr %2, i64 40
  store i32 0, ptr %19, align 8
  call void @_ZN14MacroAssembler6movptrE8Register7Address(ptr noundef nonnull align 8 dereferenceable(40) %8, i32 0, ptr noundef nonnull %2) #6
  %20 = load ptr, ptr %0, align 8
  %21 = load i8, ptr @PrintInterpreter, align 1
  %22 = trunc i8 %21 to i1
  br i1 %22, label %23, label %_ZN12Disassembler4hookI25InterpreterMacroAssemblerEEPT_PKciS3_.exit10

23:                                               ; preds = %_ZN12Disassembler4hookI25InterpreterMacroAssemblerEEPT_PKciS3_.exit9
  call void @_ZN12Disassembler5_hookEPKciP14MacroAssembler(ptr noundef nonnull @.str, i32 noundef 489, ptr noundef %20) #6
  br label %_ZN12Disassembler4hookI25InterpreterMacroAssemblerEEPT_PKciS3_.exit10

_ZN12Disassembler4hookI25InterpreterMacroAssemblerEEPT_PKciS3_.exit10: ; preds = %_ZN12Disassembler4hookI25InterpreterMacroAssemblerEEPT_PKciS3_.exit9, %23
  call void @_ZN14MacroAssembler18resolve_oop_handleE8RegisterS0_(ptr noundef nonnull align 8 dereferenceable(40) %20, i32 0, i32 10) #6
  %24 = load ptr, ptr %0, align 8
  %25 = load i8, ptr @PrintInterpreter, align 1
  %26 = trunc i8 %25 to i1
  br i1 %26, label %27, label %_ZN12Disassembler4hookI25InterpreterMacroAssemblerEEPT_PKciS3_.exit11

27:                                               ; preds = %_ZN12Disassembler4hookI25InterpreterMacroAssemblerEEPT_PKciS3_.exit10
  call void @_ZN12Disassembler5_hookEPKciP14MacroAssembler(ptr noundef nonnull @.str, i32 noundef 491, ptr noundef %24) #6
  br label %_ZN12Disassembler4hookI25InterpreterMacroAssemblerEEPT_PKciS3_.exit11

_ZN12Disassembler4hookI25InterpreterMacroAssemblerEEPT_PKciS3_.exit11: ; preds = %_ZN12Disassembler4hookI25InterpreterMacroAssemblerEEPT_PKciS3_.exit10, %27
  call void @_ZN9Assembler3popE8Register(ptr noundef nonnull align 8 dereferenceable(40) %24, i32 1) #6
  %28 = load ptr, ptr %0, align 8
  %29 = load i8, ptr @PrintInterpreter, align 1
  %30 = trunc i8 %29 to i1
  br i1 %30, label %31, label %_ZN12Disassembler4hookI25InterpreterMacroAssemblerEEPT_PKciS3_.exit12

31:                                               ; preds = %_ZN12Disassembler4hookI25InterpreterMacroAssemblerEEPT_PKciS3_.exit11
  call void @_ZN12Disassembler5_hookEPKciP14MacroAssembler(ptr noundef nonnull @.str, i32 noundef 492, ptr noundef %28) #6
  br label %_ZN12Disassembler4hookI25InterpreterMacroAssemblerEEPT_PKciS3_.exit12

_ZN12Disassembler4hookI25InterpreterMacroAssemblerEEPT_PKciS3_.exit12: ; preds = %_ZN12Disassembler4hookI25InterpreterMacroAssemblerEEPT_PKciS3_.exit11, %31
  call void @_ZN9Assembler3movE8RegisterS0_(ptr noundef nonnull align 8 dereferenceable(40) %28, i32 4, i32 13) #6
  %32 = load ptr, ptr %0, align 8
  %33 = load i8, ptr @PrintInterpreter, align 1
  %34 = trunc i8 %33 to i1
  br i1 %34, label %35, label %_ZN12Disassembler4hookI25InterpreterMacroAssemblerEEPT_PKciS3_.exit13

35:                                               ; preds = %_ZN12Disassembler4hookI25InterpreterMacroAssemblerEEPT_PKciS3_.exit12
  call void @_ZN12Disassembler5_hookEPKciP14MacroAssembler(ptr noundef nonnull @.str, i32 noundef 493, ptr noundef %32) #6
  br label %_ZN12Disassembler4hookI25InterpreterMacroAssemblerEEPT_PKciS3_.exit13

_ZN12Disassembler4hookI25InterpreterMacroAssemblerEEPT_PKciS3_.exit13: ; preds = %_ZN12Disassembler4hookI25InterpreterMacroAssemblerEEPT_PKciS3_.exit12, %35
  call void @_ZN9Assembler3jmpE8Register(ptr noundef nonnull align 8 dereferenceable(40) %32, i32 1) #6
  ret ptr %12
}